(dp1
S'layout'
p2
(ilayout
Layout
p3
(dp4
S'capsules'
p5
(lp6
sS'numGhosts'
p7
I4
sS'food'
p8
(igame
Grid
p9
(dp10
S'CELLS_PER_INT'
p11
I30
sS'width'
p12
I34
sS'data'
p13
(lp14
(lp15
I00
aI00
aI00
aI00
aI00
aI00
aI00
aI00
aI00
aI00
aI00
aI00
aI00
aI00
aI00
aI00
aI00
aI00
aa(lp16
I00
aI00
aI00
aI00
aI00
aI00
aI00
aI00
aI00
aI00
aI00
aI00
aI00
aI01
aI00
aI01
aI01
aI00
aa(lp17
I00
aI00
aI00
aI00
aI00
aI01
aI01
aI00
aI00
aI00
aI00
aI00
aI00
aI01
aI00
aI00
aI00
aI00
aa(lp18
I00
aI00
aI00
aI00
aI00
aI00
aI00
aI00
aI00
aI00
aI01
aI00
aI00
aI00
aI00
aI00
aI01
aI00
aa(lp19
I00
aI00
aI00
aI00
aI00
aI00
aI00
aI00
aI00
aI00
aI00
aI00
aI00
aI00
aI00
aI00
aI00
aI00
aa(lp20
I00
aI00
aI00
aI00
aI00
aI00
aI00
aI00
aI00
aI00
aI00
aI00
aI00
aI00
aI00
aI00
aI00
aI00
aa(lp21
I00
aI01
aI00
aI00
aI00
aI00
aI00
aI00
aI00
aI00
aI00
aI00
aI00
aI00
aI00
aI00
aI00
aI00
aa(lp22
I00
aI01
aI00
aI01
aI01
aI00
aI00
aI00
aI00
aI00
aI00
aI01
aI00
aI00
aI00
aI00
aI00
aI00
aa(lp23
I00
aI00
aI00
aI00
aI00
aI00
aI00
aI00
aI00
aI00
aI00
aI00
aI00
aI00
aI00
aI00
aI00
aI00
aa(lp24
I00
aI01
aI01
aI00
aI00
aI00
aI01
aI00
aI01
aI01
aI00
aI00
aI00
aI00
aI00
aI00
aI00
aI00
aa(lp25
I00
aI00
aI00
aI00
aI00
aI00
aI01
aI00
aI00
aI00
aI00
aI00
aI00
aI00
aI00
aI00
aI01
aI00
aa(lp26
I00
aI01
aI00
aI00
aI00
aI00
aI00
aI00
aI00
aI00
aI00
aI00
aI00
aI00
aI00
aI00
aI00
aI00
aa(lp27
I00
aI01
aI00
aI00
aI00
aI00
aI00
aI00
aI00
aI01
aI00
aI01
aI00
aI00
aI00
aI00
aI00
aI00
aa(lp28
I00
aI00
aI00
aI00
aI00
aI00
aI00
aI00
aI00
aI00
aI00
aI00
aI00
aI00
aI00
aI00
aI00
aI00
aa(lp29
I00
aI00
aI00
aI00
aI00
aI00
aI00
aI00
aI00
aI00
aI01
aI01
aI00
aI01
aI00
aI00
aI00
aI00
aa(lp30
I00
aI00
aI00
aI00
aI00
aI00
aI00
aI00
aI00
aI00
aI00
aI00
aI00
aI00
aI00
aI00
aI00
aI00
aa(lp31
I00
aI00
aI00
aI00
aI00
aI00
aI00
aI01
aI01
aI00
aI00
aI00
aI00
aI00
aI00
aI00
aI01
aI00
aa(lp32
I00
aI01
aI00
aI00
aI00
aI00
aI00
aI00
aI00
aI01
aI01
aI00
aI00
aI00
aI00
aI00
aI00
aI00
aa(lp33
I00
aI00
aI00
aI00
aI00
aI00
aI00
aI00
aI00
aI00
aI00
aI00
aI00
aI00
aI00
aI00
aI00
aI00
aa(lp34
I00
aI00
aI00
aI00
aI01
aI00
aI01
aI01
aI00
aI00
aI00
aI00
aI00
aI00
aI00
aI00
aI00
aI00
aa(lp35
I00
aI00
aI00
aI00
aI00
aI00
aI00
aI00
aI00
aI00
aI00
aI00
aI00
aI00
aI00
aI00
aI00
aI00
aa(lp36
I00
aI00
aI00
aI00
aI00
aI00
aI01
aI00
aI01
aI00
aI00
aI00
aI00
aI00
aI00
aI00
aI01
aI00
aa(lp37
I00
aI00
aI00
aI00
aI00
aI00
aI00
aI00
aI00
aI00
aI00
aI00
aI00
aI00
aI00
aI00
aI01
aI00
aa(lp38
I00
aI01
aI00
aI00
aI00
aI00
aI00
aI00
aI00
aI00
aI00
aI01
aI00
aI00
aI00
aI00
aI00
aI00
aa(lp39
I00
aI00
aI00
aI00
aI00
aI00
aI00
aI00
aI01
aI01
aI00
aI01
aI00
aI00
aI00
aI01
aI01
aI00
aa(lp40
I00
aI00
aI00
aI00
aI00
aI00
aI00
aI00
aI00
aI00
aI00
aI00
aI00
aI00
aI00
aI00
aI00
aI00
aa(lp41
I00
aI00
aI00
aI00
aI00
aI00
aI01
aI00
aI00
aI00
aI00
aI00
aI00
aI01
aI01
aI00
aI01
aI00
aa(lp42
I00
aI00
aI00
aI00
aI00
aI00
aI00
aI00
aI00
aI00
aI00
aI00
aI00
aI00
aI00
aI00
aI01
aI00
aa(lp43
I00
aI00
aI00
aI00
aI00
aI00
aI00
aI00
aI00
aI00
aI00
aI00
aI00
aI00
aI00
aI00
aI00
aI00
aa(lp44
I00
aI00
aI00
aI00
aI00
aI00
aI00
aI00
aI00
aI00
aI00
aI00
aI00
aI00
aI00
aI00
aI00
aI00
aa(lp45
I00
aI01
aI00
aI00
aI00
aI00
aI00
aI01
aI00
aI00
aI00
aI00
aI00
aI00
aI00
aI00
aI00
aI00
aa(lp46
I00
aI00
aI00
aI00
aI01
aI00
aI00
aI00
aI00
aI00
aI00
aI01
aI01
aI00
aI00
aI00
aI00
aI00
aa(lp47
I00
aI01
aI01
aI00
aI01
aI00
aI00
aI00
aI00
aI00
aI00
aI00
aI00
aI00
aI00
aI00
aI00
aI00
aa(lp48
I00
aI00
aI00
aI00
aI00
aI00
aI00
aI00
aI00
aI00
aI00
aI00
aI00
aI00
aI00
aI00
aI00
aI00
aasS'height'
p49
I18
sbsS'agentPositions'
p50
(lp51
(I00
(I1
I2
tp52
tp53
a(I00
(I32
I15
tp54
tp55
a(I00
(I1
I1
tp56
tp57
a(I00
(I32
I16
tp58
tp59
asg49
I18
sg12
I34
sS'walls'
p60
(igame
Grid
p61
(dp62
g11
I30
sg12
I34
sg13
(lp63
(lp64
I01
aI01
aI01
aI01
aI01
aI01
aI01
aI01
aI01
aI01
aI01
aI01
aI01
aI01
aI01
aI01
aI01
aI01
aa(lp65
I01
aI00
aI00
aI01
aI00
aI01
aI00
aI00
aI01
aI00
aI00
aI00
aI01
aI00
aI01
aI00
aI00
aI01
aa(lp66
I01
aI00
aI00
aI00
aI00
aI00
aI00
aI00
aI01
aI00
aI01
aI00
aI01
aI00
aI01
aI00
aI01
aI01
aa(lp67
I01
aI00
aI01
aI01
aI01
aI01
aI00
aI01
aI01
aI00
aI00
aI00
aI01
aI00
aI01
aI00
aI00
aI01
aa(lp68
I01
aI00
aI01
aI00
aI00
aI01
aI00
aI00
aI01
aI01
aI00
aI01
aI01
aI00
aI00
aI00
aI00
aI01
aa(lp69
I01
aI00
aI00
aI00
aI00
aI01
aI00
aI00
aI00
aI00
aI00
aI00
aI00
aI00
aI01
aI00
aI01
aI01
aa(lp70
I01
aI00
aI01
aI01
aI00
aI01
aI01
aI01
aI01
aI01
aI00
aI01
aI01
aI00
aI00
aI00
aI00
aI01
aa(lp71
I01
aI00
aI01
aI00
aI00
aI01
aI00
aI00
aI00
aI00
aI00
aI00
aI01
aI00
aI00
aI01
aI00
aI01
aa(lp72
I01
aI01
aI01
aI01
aI01
aI01
aI00
aI01
aI01
aI01
aI01
aI01
aI01
aI00
aI01
aI01
aI00
aI01
aa(lp73
I01
aI00
aI00
aI00
aI01
aI00
aI00
aI00
aI00
aI00
aI00
aI00
aI01
aI00
aI00
aI01
aI00
aI01
aa(lp74
I01
aI01
aI01
aI00
aI01
aI00
aI00
aI00
aI00
aI00
aI00
aI00
aI00
aI00
aI00
aI00
aI00
aI01
aa(lp75
I01
aI00
aI01
aI00
aI00
aI00
aI01
aI01
aI01
aI01
aI00
aI00
aI00
aI00
aI00
aI01
aI00
aI01
aa(lp76
I01
aI00
aI01
aI00
aI01
aI00
aI01
aI00
aI00
aI00
aI00
aI00
aI01
aI00
aI00
aI01
aI00
aI01
aa(lp77
I01
aI00
aI00
aI00
aI01
aI00
aI00
aI00
aI00
aI01
aI01
aI01
aI01
aI00
aI00
aI01
aI00
aI01
aa(lp78
I01
aI00
aI00
aI00
aI01
aI00
aI01
aI00
aI00
aI00
aI00
aI00
aI01
aI00
aI00
aI00
aI00
aI01
aa(lp79
I01
aI00
aI00
aI01
aI01
aI00
aI01
aI01
aI01
aI00
aI01
aI01
aI01
aI00
aI01
aI00
aI01
aI01
aa(lp80
I01
aI00
aI00
aI00
aI00
aI00
aI00
aI00
aI00
aI00
aI00
aI00
aI00
aI00
aI00
aI00
aI00
aI01
aa(lp81
I01
aI00
aI00
aI00
aI00
aI00
aI00
aI00
aI00
aI00
aI00
aI00
aI00
aI00
aI00
aI00
aI00
aI01
aa(lp82
I01
aI01
aI00
aI01
aI00
aI01
aI01
aI01
aI00
aI01
aI01
aI01
aI00
aI01
aI01
aI00
aI00
aI01
aa(lp83
I01
aI00
aI00
aI00
aI00
aI01
aI00
aI00
aI00
aI00
aI00
aI01
aI00
aI01
aI00
aI00
aI00
aI01
aa(lp84
I01
aI00
aI01
aI00
aI00
aI01
aI01
aI01
aI01
aI00
aI00
aI00
aI00
aI01
aI00
aI00
aI00
aI01
aa(lp85
I01
aI00
aI01
aI00
aI00
aI01
aI00
aI00
aI00
aI00
aI00
aI01
aI00
aI01
aI00
aI01
aI00
aI01
aa(lp86
I01
aI00
aI01
aI00
aI00
aI00
aI00
aI00
aI01
aI01
aI01
aI01
aI00
aI00
aI00
aI01
aI00
aI01
aa(lp87
I01
aI00
aI00
aI00
aI00
aI00
aI00
aI00
aI00
aI00
aI00
aI00
aI00
aI01
aI00
aI01
aI01
aI01
aa(lp88
I01
aI00
aI01
aI00
aI00
aI01
aI00
aI00
aI00
aI00
aI00
aI00
aI00
aI01
aI00
aI00
aI00
aI01
aa(lp89
I01
aI00
aI01
aI01
aI00
aI01
aI01
aI01
aI01
aI01
aI01
aI00
aI01
aI01
aI01
aI01
aI01
aI01
aa(lp90
I01
aI00
aI01
aI00
aI00
aI01
aI00
aI00
aI00
aI00
aI00
aI00
aI01
aI00
aI00
aI01
aI00
aI01
aa(lp91
I01
aI00
aI00
aI00
aI00
aI01
aI01
aI00
aI01
aI01
aI01
aI01
aI01
aI00
aI01
aI01
aI00
aI01
aa(lp92
I01
aI01
aI00
aI01
aI00
aI00
aI00
aI00
aI00
aI00
aI00
aI00
aI01
aI00
aI00
aI00
aI00
aI01
aa(lp93
I01
aI00
aI00
aI00
aI00
aI01
aI01
aI00
aI01
aI01
aI00
aI00
aI01
aI00
aI00
aI01
aI00
aI01
aa(lp94
I01
aI00
aI00
aI01
aI00
aI01
aI00
aI00
aI00
aI01
aI01
aI00
aI01
aI01
aI01
aI01
aI00
aI01
aa(lp95
I01
aI01
aI00
aI01
aI00
aI01
aI00
aI01
aI00
aI01
aI00
aI00
aI00
aI00
aI00
aI00
aI00
aI01
aa(lp96
I01
aI00
aI00
aI01
aI00
aI01
aI00
aI00
aI00
aI01
aI00
aI00
aI01
aI00
aI01
aI00
aI00
aI01
aa(lp97
I01
aI01
aI01
aI01
aI01
aI01
aI01
aI01
aI01
aI01
aI01
aI01
aI01
aI01
aI01
aI01
aI01
aI01
aasg49
I18
sbsS'totalFood'
p98
I60
sS'layoutText'
p99
(lp100
S'%%%%%%%%%%%%%%%%%%%%%%%%%%%%%%%%%%'
p101
aS'%.%. %    .    %.    ..%.%..    4%'
p102
aS'%.     %%% %%%       %%%.%%% %% 2%'
p103
aS'%%%% %  %      %  %      %.%  % %%'
p104
aS'%..           .   %%%% %%%.   %  %'
p105
aS'%%%%% %%%%  %%%%         %%%%%%.%%'
p106
aS'%   % %.%   .%.%  %% %%..  %   . %'
p107
aS'% %.    %    %.% .%   %  % %  %  %'
p108
aS'%   % % %. %.%   .%   % .% % %%%%%'
p109
aS'%%%%% % %. %   %.   %.% .% % %   %'
p110
aS'%  %  % %  %   %. %.%    %    .% %'
p111
aS'% .   %  ..%% %%  %.%.   %.% %   %'
p112
aS'%%.%%%%%%         %%%%  %%%% %%%%%'
p113
aS'%  %   .%%% %%%%   .           ..%'
p114
aS'%% %  %.%      %  %      %  % %%%%'
p115
aS'%1 %% %%%.%%%       %%% %%%     .%'
p116
aS'%3    ..%.%..    .%    .    % .%.%'
p117
aS'%%%%%%%%%%%%%%%%%%%%%%%%%%%%%%%%%%'
p118
asbsS'blueTeamName'
p119
S'Blue'
p120
sS'actions'
p121
(lp122
(I1
S'West'
p123
tp124
a(I2
S'East'
p125
tp126
a(I3
S'South'
p127
tp128
a(I0
g125
tp129
a(I1
g127
tp130
a(I2
S'North'
p131
tp132
a(I3
g123
tp133
a(I0
g131
tp134
a(I1
g127
tp135
a(I2
g131
tp136
a(I3
g127
tp137
a(I0
g131
tp138
a(I1
g127
tp139
a(I2
g131
tp140
a(I3
g127
tp141
a(I0
g131
tp142
a(I1
g127
tp143
a(I2
g131
tp144
a(I3
g127
tp145
a(I0
g131
tp146
a(I1
g123
tp147
a(I2
g131
tp148
a(I3
g127
tp149
a(I0
g125
tp150
a(I1
g123
tp151
a(I2
g125
tp152
a(I3
g123
tp153
a(I0
g125
tp154
a(I1
g123
tp155
a(I2
g125
tp156
a(I3
g123
tp157
a(I0
g125
tp158
a(I1
g127
tp159
a(I2
g125
tp160
a(I3
g127
tp161
a(I0
g131
tp162
a(I1
g127
tp163
a(I2
g131
tp164
a(I3
g123
tp165
a(I0
g131
tp166
a(I1
g127
tp167
a(I2
g131
tp168
a(I3
g127
tp169
a(I0
g131
tp170
a(I1
g127
tp171
a(I2
g131
tp172
a(I3
g127
tp173
a(I0
g131
tp174
a(I1
g127
tp175
a(I2
g131
tp176
a(I3
g127
tp177
a(I0
g125
tp178
a(I1
g127
tp179
a(I2
g125
tp180
a(I3
g127
tp181
a(I0
g125
tp182
a(I1
g127
tp183
a(I2
g125
tp184
a(I3
g127
tp185
a(I0
g127
tp186
a(I1
g123
tp187
a(I2
g127
tp188
a(I3
g127
tp189
a(I0
g127
tp190
a(I1
g123
tp191
a(I2
g127
tp192
a(I3
g123
tp193
a(I0
g127
tp194
a(I1
g123
tp195
a(I2
g127
tp196
a(I3
g123
tp197
a(I0
g127
tp198
a(I1
g123
tp199
a(I2
g127
tp200
a(I3
g123
tp201
a(I0
g125
tp202
a(I1
g123
tp203
a(I2
g125
tp204
a(I3
g123
tp205
a(I0
g125
tp206
a(I1
g123
tp207
a(I2
g125
tp208
a(I3
g123
tp209
a(I0
g127
tp210
a(I1
g123
tp211
a(I2
g127
tp212
a(I3
g127
tp213
a(I0
g125
tp214
a(I1
g123
tp215
a(I2
g125
tp216
a(I3
g131
tp217
a(I0
g125
tp218
a(I1
g123
tp219
a(I2
g125
tp220
a(I3
g131
tp221
a(I0
g125
tp222
a(I1
g123
tp223
a(I2
g125
tp224
a(I3
g127
tp225
a(I0
g125
tp226
a(I1
g123
tp227
a(I2
g125
tp228
a(I3
g131
tp229
a(I0
g131
tp230
a(I1
g123
tp231
a(I2
g125
tp232
a(I3
g131
tp233
a(I0
g131
tp234
a(I1
g131
tp235
a(I2
g125
tp236
a(I3
g131
tp237
a(I0
g131
tp238
a(I1
g131
tp239
a(I2
g125
tp240
a(I3
g123
tp241
a(I0
g127
tp242
a(I1
g131
tp243
a(I2
g131
tp244
a(I3
g123
tp245
a(I0
g131
tp246
a(I1
g127
tp247
a(I2
g131
tp248
a(I3
g131
tp249
a(I0
g125
tp250
a(I1
g123
tp251
a(I2
g131
tp252
a(I3
g131
tp253
a(I0
g131
tp254
a(I1
g127
tp255
a(I2
g127
tp256
a(I3
g123
tp257
a(I0
g125
tp258
a(I1
g127
tp259
a(I2
g131
tp260
a(I3
g125
tp261
a(I0
g125
tp262
a(I1
g127
tp263
a(I2
g131
tp264
a(I3
g127
tp265
a(I0
g125
tp266
a(I1
g127
tp267
a(I2
g131
tp268
a(I3
g131
tp269
a(I0
g131
tp270
a(I1
g123
tp271
a(I2
g131
tp272
a(I3
g123
tp273
a(I0
g123
tp274
a(I1
g123
tp275
a(I2
g127
tp276
a(I3
g123
tp277
a(I0
g131
tp278
a(I1
g127
tp279
a(I2
g127
tp280
a(I3
g127
tp281
a(I0
g125
tp282
a(I1
g123
tp283
a(I2
g127
tp284
a(I3
g123
tp285
a(I0
g131
tp286
a(I1
g127
tp287
a(I2
g127
tp288
a(I3
g123
tp289
a(I0
g125
tp290
a(I1
g127
tp291
a(I2
g127
tp292
a(I3
g131
tp293
a(I0
g125
tp294
a(I1
g127
tp295
a(I2
g127
tp296
a(I3
g131
tp297
a(I0
g125
tp298
a(I1
g127
tp299
a(I2
g127
tp300
a(I3
g131
tp301
a(I0
g125
tp302
a(I1
g127
tp303
a(I2
g131
tp304
a(I3
g131
tp305
a(I0
g125
tp306
a(I1
g127
tp307
a(I2
g131
tp308
a(I3
g125
tp309
a(I0
g125
tp310
a(I1
g123
tp311
a(I2
g131
tp312
a(I3
g125
tp313
a(I0
g127
tp314
a(I1
g123
tp315
a(I2
g131
tp316
a(I3
g125
tp317
a(I0
g127
tp318
a(I1
g123
tp319
a(I2
g131
tp320
a(I3
g125
tp321
a(I0
g127
tp322
a(I1
g123
tp323
a(I2
g131
tp324
a(I3
g125
tp325
a(I0
g127
tp326
a(I1
g123
tp327
a(I2
g127
tp328
a(I3
g125
tp329
a(I0
g125
tp330
a(I1
g123
tp331
a(I2
g127
tp332
a(I3
g127
tp333
a(I0
g127
tp334
a(I1
g123
tp335
a(I2
g131
tp336
a(I3
g127
tp337
a(I0
g123
tp338
a(I1
g123
tp339
a(I2
g127
tp340
a(I3
g127
tp341
a(I0
g123
tp342
a(I1
g123
tp343
a(I2
g127
tp344
a(I3
g127
tp345
a(I0
g123
tp346
a(I1
g123
tp347
a(I2
g127
tp348
a(I3
g127
tp349
a(I0
g131
tp350
a(I1
S'Stop'
p351
tp352
a(I2
g131
tp353
a(I3
g123
tp354
a(I0
g131
tp355
a(I1
g123
tp356
a(I2
g131
tp357
a(I3
g123
tp358
a(I0
g123
tp359
a(I1
g131
tp360
a(I2
g131
tp361
a(I3
g131
tp362
a(I0
g131
tp363
a(I1
g123
tp364
a(I2
g127
tp365
a(I3
g131
tp366
a(I0
g123
tp367
a(I1
g123
tp368
a(I2
g127
tp369
a(I3
g131
tp370
a(I0
g127
tp371
a(I1
g123
tp372
a(I2
g127
tp373
a(I3
g127
tp374
a(I0
g127
tp375
a(I1
g123
tp376
a(I2
g127
tp377
a(I3
g123
tp378
a(I0
g123
tp379
a(I1
g131
tp380
a(I2
g123
tp381
a(I3
g123
tp382
a(I0
g123
tp383
a(I1
g131
tp384
a(I2
g123
tp385
a(I3
g127
tp386
a(I0
g127
tp387
a(I1
g131
tp388
a(I2
g123
tp389
a(I3
g123
tp390
a(I0
g123
tp391
a(I1
g123
tp392
a(I2
g131
tp393
a(I3
g125
tp394
a(I0
g127
tp395
a(I1
g131
tp396
a(I2
g131
tp397
a(I3
g123
tp398
a(I0
g127
tp399
a(I1
g131
tp400
a(I2
g131
tp401
a(I3
g125
tp402
a(I0
g127
tp403
a(I1
g123
tp404
a(I2
g123
tp405
a(I3
g127
tp406
a(I0
g127
tp407
a(I1
g123
tp408
a(I2
g131
tp409
a(I3
g131
tp410
a(I0
g125
tp411
a(I1
g127
tp412
a(I2
g131
tp413
a(I3
g123
tp414
a(I0
g127
tp415
a(I1
g123
tp416
a(I2
g123
tp417
a(I3
g125
tp418
a(I0
g127
tp419
a(I1
g127
tp420
a(I2
g123
tp421
a(I3
g131
tp422
a(I0
g123
tp423
a(I1
g127
tp424
a(I2
g123
tp425
a(I3
g127
tp426
a(I0
g125
tp427
a(I1
g127
tp428
a(I2
g127
tp429
a(I3
g131
tp430
a(I0
g131
tp431
a(I1
g125
tp432
a(I2
g127
tp433
a(I3
g131
tp434
a(I0
g125
tp435
a(I1
g127
tp436
a(I2
g127
tp437
a(I3
g127
tp438
a(I0
g125
tp439
a(I1
g125
tp440
a(I2
g125
tp441
a(I3
g127
tp442
a(I0
g131
tp443
a(I1
g125
tp444
a(I2
g127
tp445
a(I3
g123
tp446
a(I0
g131
tp447
a(I1
g125
tp448
a(I2
g127
tp449
a(I3
g123
tp450
a(I0
g123
tp451
a(I1
g125
tp452
a(I2
g125
tp453
a(I3
g127
tp454
a(I0
g123
tp455
a(I1
g125
tp456
a(I2
g125
tp457
a(I3
g127
tp458
a(I0
g127
tp459
a(I1
g125
tp460
a(I2
g125
tp461
a(I3
g127
tp462
a(I0
g123
tp463
a(I1
g125
tp464
a(I2
g125
tp465
a(I3
g127
tp466
a(I0
g127
tp467
a(I1
g131
tp468
a(I2
g125
tp469
a(I3
g131
tp470
a(I0
g125
tp471
a(I1
g131
tp472
a(I2
g125
tp473
a(I3
g127
tp474
a(I0
g125
tp475
a(I1
g123
tp476
a(I2
g131
tp477
a(I3
g127
tp478
a(I0
g125
tp479
a(I1
g127
tp480
a(I2
g131
tp481
a(I3
g127
tp482
a(I0
g127
tp483
a(I1
g123
tp484
a(I2
g131
tp485
a(I3
g125
tp486
a(I0
g125
tp487
a(I1
g127
tp488
a(I2
g131
tp489
a(I3
g125
tp490
a(I0
g125
tp491
a(I1
g127
tp492
a(I2
g131
tp493
a(I3
g127
tp494
a(I0
g125
tp495
a(I1
g127
tp496
a(I2
g131
tp497
a(I3
g125
tp498
a(I0
g125
tp499
a(I1
g127
tp500
a(I2
g127
tp501
a(I3
g125
tp502
a(I0
g131
tp503
a(I1
g123
tp504
a(I2
g127
tp505
a(I3
g125
tp506
a(I0
g131
tp507
a(I1
g123
tp508
a(I2
g131
tp509
a(I3
g125
tp510
a(I0
g123
tp511
a(I1
g123
tp512
a(I2
g131
tp513
a(I3
g131
tp514
a(I0
g123
tp515
a(I1
g127
tp516
a(I2
g127
tp517
a(I3
g131
tp518
a(I0
g123
tp519
a(I1
g127
tp520
a(I2
g127
tp521
a(I3
g123
tp522
a(I0
g123
tp523
a(I1
g127
tp524
a(I2
g123
tp525
a(I3
g123
tp526
a(I0
g127
tp527
a(I1
g127
tp528
a(I2
g125
tp529
a(I3
g123
tp530
a(I0
g123
tp531
a(I1
g127
tp532
a(I2
g127
tp533
a(I3
g123
tp534
a(I0
g123
tp535
a(I1
g127
tp536
a(I2
g127
tp537
a(I3
g127
tp538
a(I0
g127
tp539
a(I1
g127
tp540
a(I2
g131
tp541
a(I3
g123
tp542
a(I0
g123
tp543
a(I1
g123
tp544
a(I2
g131
tp545
a(I3
g123
tp546
a(I0
g123
tp547
a(I1
g123
tp548
a(I2
g131
tp549
a(I3
g131
tp550
a(I0
g123
tp551
a(I1
g123
tp552
a(I2
g127
tp553
a(I3
g131
tp554
a(I0
g125
tp555
a(I1
g123
tp556
a(I2
g127
tp557
a(I3
g125
tp558
a(I0
g125
tp559
a(I1
g123
tp560
a(I2
g127
tp561
a(I3
g123
tp562
a(I0
g123
tp563
a(I1
g123
tp564
a(I2
g127
tp565
a(I3
g131
tp566
a(I0
g131
tp567
a(I1
g123
tp568
a(I2
g127
tp569
a(I3
g131
tp570
a(I0
g127
tp571
a(I1
g123
tp572
a(I2
g131
tp573
a(I3
g131
tp574
a(I0
g131
tp575
a(I1
g351
tp576
a(I2
g131
tp577
a(I3
g131
tp578
a(I0
g127
tp579
a(I1
g123
tp580
a(I2
g131
tp581
a(I3
g125
tp582
a(I0
g125
tp583
a(I1
g123
tp584
a(I2
g131
tp585
a(I3
g123
tp586
a(I0
g123
tp587
a(I1
g123
tp588
a(I2
g127
tp589
a(I3
g125
tp590
a(I0
g123
tp591
a(I1
g125
tp592
a(I2
g131
tp593
a(I3
g125
tp594
a(I0
g125
tp595
a(I1
g123
tp596
a(I2
g127
tp597
a(I3
g127
tp598
a(I0
g123
tp599
a(I1
g351
tp600
a(I2
g131
tp601
a(I3
g127
tp602
a(I0
g125
tp603
a(I1
g123
tp604
a(I2
g127
tp605
a(I3
g131
tp606
a(I0
g125
tp607
a(I1
g125
tp608
a(I2
g127
tp609
a(I3
g131
tp610
a(I0
g131
tp611
a(I1
g125
tp612
a(I2
g127
tp613
a(I3
g131
tp614
a(I0
g127
tp615
a(I1
g351
tp616
a(I2
g127
tp617
a(I3
g127
tp618
a(I0
g123
tp619
a(I1
g123
tp620
a(I2
g127
tp621
a(I3
g127
tp622
a(I0
g131
tp623
a(I1
g123
tp624
a(I2
g131
tp625
a(I3
g127
tp626
a(I0
g125
tp627
a(I1
g123
tp628
a(I2
g131
tp629
a(I3
g131
tp630
a(I0
g131
tp631
a(I1
g127
tp632
a(I2
g131
tp633
a(I3
g127
tp634
a(I0
g131
tp635
a(I1
g127
tp636
a(I2
g131
tp637
a(I3
g131
tp638
a(I0
g131
tp639
a(I1
g127
tp640
a(I2
g127
tp641
a(I3
g127
tp642
a(I0
g125
tp643
a(I1
g127
tp644
a(I2
g131
tp645
a(I3
g131
tp646
a(I0
g127
tp647
a(I1
g123
tp648
a(I2
g127
tp649
a(I3
g131
tp650
a(I0
g125
tp651
a(I1
g123
tp652
a(I2
g127
tp653
a(I3
g123
tp654
a(I0
g125
tp655
a(I1
g127
tp656
a(I2
g131
tp657
a(I3
g123
tp658
a(I0
g125
tp659
a(I1
g123
tp660
a(I2
g131
tp661
a(I3
g125
tp662
a(I0
g125
tp663
a(I1
g127
tp664
a(I2
g131
tp665
a(I3
g125
tp666
a(I0
g125
tp667
a(I1
g127
tp668
a(I2
g127
tp669
a(I3
g131
tp670
a(I0
g125
tp671
a(I1
g127
tp672
a(I2
g127
tp673
a(I3
g127
tp674
a(I0
g125
tp675
a(I1
g127
tp676
a(I2
g131
tp677
a(I3
g127
tp678
a(I0
g125
tp679
a(I1
g127
tp680
a(I2
g131
tp681
a(I3
g131
tp682
a(I0
g123
tp683
a(I1
g127
tp684
a(I2
g131
tp685
a(I3
g131
tp686
a(I0
g127
tp687
a(I1
g123
tp688
a(I2
g127
tp689
a(I3
g125
tp690
a(I0
g123
tp691
a(I1
g123
tp692
a(I2
g127
tp693
a(I3
g125
tp694
a(I0
g123
tp695
a(I1
g123
tp696
a(I2
g127
tp697
a(I3
g127
tp698
a(I0
g123
tp699
a(I1
g123
tp700
a(I2
g131
tp701
a(I3
g127
tp702
a(I0
g123
tp703
a(I1
g123
tp704
a(I2
g131
tp705
a(I3
g127
tp706
a(I0
g123
tp707
a(I1
g123
tp708
a(I2
g127
tp709
a(I3
g125
tp710
a(I0
g127
tp711
a(I1
g123
tp712
a(I2
g131
tp713
a(I3
g127
tp714
a(I0
g127
tp715
a(I1
g123
tp716
a(I2
g127
tp717
a(I3
g127
tp718
a(I0
g125
tp719
a(I1
g123
tp720
a(I2
g127
tp721
a(I3
g127
tp722
a(I0
g125
tp723
a(I1
g123
tp724
a(I2
g131
tp725
a(I3
g125
tp726
a(I0
g123
tp727
a(I1
g123
tp728
a(I2
g131
tp729
a(I3
g127
tp730
a(I0
g123
tp731
a(I1
g123
tp732
a(I2
g127
tp733
a(I3
g127
tp734
a(I0
g131
tp735
a(I1
g351
tp736
a(I2
g127
tp737
a(I3
g123
tp738
a(I0
g131
tp739
a(I1
g127
tp740
a(I2
g127
tp741
a(I3
g123
tp742
a(I0
g125
tp743
a(I1
g127
tp744
a(I2
g127
tp745
a(I3
g123
tp746
a(I0
g125
tp747
a(I1
g127
tp748
a(I2
g127
tp749
a(I3
g123
tp750
a(I0
g125
tp751
a(I1
g123
tp752
a(I2
g127
tp753
a(I3
g131
tp754
a(I0
g131
tp755
a(I1
g123
tp756
a(I2
g127
tp757
a(I3
g131
tp758
a(I0
g125
tp759
a(I1
g131
tp760
a(I2
g123
tp761
a(I3
g131
tp762
a(I0
g125
tp763
a(I1
g123
tp764
a(I2
g123
tp765
a(I3
g125
tp766
a(I0
g125
tp767
a(I1
g351
tp768
a(I2
g123
tp769
a(I3
g125
tp770
a(I0
g125
tp771
a(I1
g123
tp772
a(I2
g125
tp773
a(I3
g125
tp774
a(I0
g127
tp775
a(I1
g127
tp776
a(I2
g125
tp777
a(I3
g125
tp778
a(I0
g125
tp779
a(I1
g127
tp780
a(I2
g125
tp781
a(I3
g125
tp782
a(I0
g127
tp783
a(I1
g127
tp784
a(I2
g131
tp785
a(I3
g125
tp786
a(I0
g125
tp787
a(I1
g127
tp788
a(I2
g131
tp789
a(I3
g125
tp790
a(I0
g125
tp791
a(I1
g123
tp792
a(I2
g131
tp793
a(I3
g127
tp794
a(I0
g127
tp795
a(I1
g123
tp796
a(I2
g131
tp797
a(I3
g125
tp798
a(I0
g125
tp799
a(I1
g123
tp800
a(I2
g131
tp801
a(I3
g127
tp802
a(I0
g131
tp803
a(I1
g127
tp804
a(I2
g131
tp805
a(I3
g125
tp806
a(I0
g127
tp807
a(I1
g127
tp808
a(I2
g127
tp809
a(I3
g125
tp810
a(I0
g131
tp811
a(I1
g127
tp812
a(I2
g127
tp813
a(I3
g125
tp814
a(I0
g125
tp815
a(I1
g127
tp816
a(I2
g131
tp817
a(I3
g123
tp818
a(I0
g131
tp819
a(I1
g127
tp820
a(I2
g131
tp821
a(I3
g131
tp822
a(I0
g131
tp823
a(I1
g127
tp824
a(I2
g127
tp825
a(I3
g131
tp826
a(I0
g131
tp827
a(I1
g127
tp828
a(I2
g127
tp829
a(I3
g123
tp830
a(I0
g131
tp831
a(I1
g123
tp832
a(I2
g131
tp833
a(I3
g123
tp834
a(I0
g125
tp835
a(I1
g123
tp836
a(I2
g127
tp837
a(I3
g123
tp838
a(I0
g125
tp839
a(I1
g123
tp840
a(I2
g131
tp841
a(I3
g123
tp842
a(I0
g131
tp843
a(I1
g123
tp844
a(I2
g131
tp845
a(I3
g123
tp846
a(I0
g125
tp847
a(I1
g123
tp848
a(I2
g131
tp849
a(I3
g123
tp850
a(I0
g131
tp851
a(I1
g123
tp852
a(I2
g131
tp853
a(I3
g131
tp854
a(I0
g131
tp855
a(I1
g123
tp856
a(I2
g127
tp857
a(I3
g131
tp858
a(I0
g131
tp859
a(I1
g123
tp860
a(I2
g131
tp861
a(I3
g123
tp862
a(I0
g125
tp863
a(I1
g123
tp864
a(I2
g131
tp865
a(I3
g123
tp866
a(I0
g125
tp867
a(I1
g123
tp868
a(I2
g131
tp869
a(I3
g131
tp870
a(I0
g127
tp871
a(I1
g123
tp872
a(I2
g127
tp873
a(I3
g127
tp874
a(I0
g127
tp875
a(I1
g123
tp876
a(I2
g127
tp877
a(I3
g131
tp878
a(I0
g127
tp879
a(I1
g131
tp880
a(I2
g127
tp881
a(I3
g131
tp882
a(I0
g127
tp883
a(I1
g131
tp884
a(I2
g127
tp885
a(I3
g131
tp886
a(I0
g125
tp887
a(I1
g125
tp888
a(I2
g127
tp889
a(I3
g123
tp890
a(I0
g125
tp891
a(I1
g131
tp892
a(I2
g127
tp893
a(I3
g131
tp894
a(I0
g127
tp895
a(I1
g131
tp896
a(I2
g131
tp897
a(I3
g131
tp898
a(I0
g125
tp899
a(I1
g123
tp900
a(I2
g131
tp901
a(I3
g131
tp902
a(I0
g125
tp903
a(I1
g123
tp904
a(I2
g131
tp905
a(I3
g127
tp906
a(I0
g125
tp907
a(I1
g127
tp908
a(I2
g131
tp909
a(I3
g131
tp910
a(I0
g125
tp911
a(I1
g127
tp912
a(I2
g131
tp913
a(I3
g127
tp914
a(I0
g125
tp915
a(I1
g127
tp916
a(I2
g131
tp917
a(I3
g127
tp918
a(I0
g125
tp919
a(I1
g127
tp920
a(I2
g127
tp921
a(I3
g127
tp922
a(I0
g125
tp923
a(I1
g123
tp924
a(I2
g127
tp925
a(I3
g131
tp926
a(I0
g127
tp927
a(I1
g123
tp928
a(I2
g127
tp929
a(I3
g127
tp930
a(I0
g125
tp931
a(I1
g123
tp932
a(I2
g127
tp933
a(I3
g123
tp934
a(I0
g125
tp935
a(I1
g127
tp936
a(I2
g127
tp937
a(I3
g131
tp938
a(I0
g125
tp939
a(I1
g127
tp940
a(I2
g131
tp941
a(I3
g127
tp942
a(I0
g125
tp943
a(I1
g127
tp944
a(I2
g131
tp945
a(I3
g127
tp946
a(I0
g127
tp947
a(I1
g127
tp948
a(I2
g131
tp949
a(I3
g127
tp950
a(I0
g125
tp951
a(I1
g123
tp952
a(I2
g131
tp953
a(I3
g127
tp954
a(I0
g125
tp955
a(I1
g123
tp956
a(I2
g131
tp957
a(I3
g131
tp958
a(I0
g131
tp959
a(I1
g131
tp960
a(I2
g127
tp961
a(I3
g127
tp962
a(I0
g125
tp963
a(I1
g131
tp964
a(I2
g127
tp965
a(I3
g131
tp966
a(I0
g131
tp967
a(I1
g131
tp968
a(I2
g131
tp969
a(I3
g131
tp970
a(I0
g131
tp971
a(I1
g131
tp972
a(I2
g131
tp973
a(I3
g131
tp974
a(I0
g125
tp975
a(I1
g123
tp976
a(I2
g127
tp977
a(I3
g127
tp978
a(I0
g131
tp979
a(I1
g123
tp980
a(I2
g127
tp981
a(I3
g131
tp982
a(I0
g127
tp983
a(I1
g123
tp984
a(I2
g127
tp985
a(I3
g127
tp986
a(I0
g123
tp987
a(I1
g131
tp988
a(I2
g127
tp989
a(I3
g127
tp990
a(I0
g131
tp991
a(I1
g123
tp992
a(I2
g131
tp993
a(I3
g131
tp994
a(I0
g125
tp995
a(I1
g123
tp996
a(I2
g131
tp997
a(I3
g127
tp998
a(I0
g123
tp999
a(I1
g123
tp1000
a(I2
g131
tp1001
a(I3
g131
tp1002
a(I0
g125
tp1003
a(I1
g125
tp1004
a(I2
g127
tp1005
a(I3
g131
tp1006
a(I0
g131
tp1007
a(I1
g351
tp1008
a(I2
g127
tp1009
a(I3
g125
tp1010
a(I0
g131
tp1011
a(I1
g123
tp1012
a(I2
g131
tp1013
a(I3
g125
tp1014
a(I0
g131
tp1015
a(I1
g123
tp1016
a(I2
g131
tp1017
a(I3
g127
tp1018
a(I0
g131
tp1019
a(I1
g123
tp1020
a(I2
g131
tp1021
a(I3
g127
tp1022
a(I0
g127
tp1023
a(I1
g123
tp1024
a(I2
g127
tp1025
a(I3
g131
tp1026
a(I0
g123
tp1027
a(I1
g131
tp1028
a(I2
g131
tp1029
a(I3
g127
tp1030
a(I0
g131
tp1031
a(I1
g123
tp1032
a(I2
g131
tp1033
a(I3
g127
tp1034
a(I0
g131
tp1035
a(I1
g123
tp1036
a(I2
g127
tp1037
a(I3
g131
tp1038
a(I0
g123
tp1039
a(I1
g127
tp1040
a(I2
g127
tp1041
a(I3
g131
tp1042
a(I0
g123
tp1043
a(I1
g127
tp1044
a(I2
g127
tp1045
a(I3
g131
tp1046
a(I0
g123
tp1047
a(I1
g127
tp1048
a(I2
g127
tp1049
a(I3
g131
tp1050
a(I0
g123
tp1051
a(I1
g127
tp1052
a(I2
g127
tp1053
a(I3
g123
tp1054
a(I0
g123
tp1055
a(I1
g123
tp1056
a(I2
g131
tp1057
a(I3
g131
tp1058
a(I0
g123
tp1059
a(I1
g123
tp1060
a(I2
g127
tp1061
a(I3
g131
tp1062
a(I0
g123
tp1063
a(I1
g127
tp1064
a(I2
g131
tp1065
a(I3
g125
tp1066
a(I0
g127
tp1067
a(I1
g123
tp1068
a(I2
g127
tp1069
a(I3
g125
tp1070
a(I0
g125
tp1071
a(I1
g127
tp1072
a(I2
g131
tp1073
a(I3
g123
tp1074
a(I0
g127
tp1075
a(I1
g127
tp1076
a(I2
g127
tp1077
a(I3
g123
tp1078
a(I0
g127
tp1079
a(I1
g127
tp1080
a(I2
g127
tp1081
a(I3
g125
tp1082
a(I0
g131
tp1083
a(I1
g123
tp1084
a(I2
g127
tp1085
a(I3
g123
tp1086
a(I0
g127
tp1087
a(I1
g123
tp1088
a(I2
g127
tp1089
a(I3
g125
tp1090
a(I0
g127
tp1091
a(I1
g131
tp1092
a(I2
g131
tp1093
a(I3
g123
tp1094
a(I0
g125
tp1095
a(I1
g131
tp1096
a(I2
g131
tp1097
a(I3
g127
tp1098
a(I0
g125
tp1099
a(I1
g131
tp1100
a(I2
g131
tp1101
a(I3
g127
tp1102
a(I0
g123
tp1103
a(I1
g131
tp1104
a(I2
g131
tp1105
a(I3
g127
tp1106
a(I0
g125
tp1107
a(I1
g123
tp1108
a(I2
g131
tp1109
a(I3
g123
tp1110
a(I0
g123
tp1111
a(I1
g123
tp1112
a(I2
g131
tp1113
a(I3
g127
tp1114
a(I0
g123
tp1115
a(I1
g131
tp1116
a(I2
g127
tp1117
a(I3
g123
tp1118
a(I0
g123
tp1119
a(I1
g123
tp1120
a(I2
g127
tp1121
a(I3
g125
tp1122
a(I0
g127
tp1123
a(I1
g123
tp1124
a(I2
g123
tp1125
a(I3
g131
tp1126
a(I0
g127
tp1127
a(I1
g123
tp1128
a(I2
g125
tp1129
a(I3
g127
tp1130
a(I0
g127
tp1131
a(I1
g123
tp1132
a(I2
g131
tp1133
a(I3
g131
tp1134
a(I0
g127
tp1135
a(I1
g123
tp1136
a(I2
g127
tp1137
a(I3
g127
tp1138
a(I0
g125
tp1139
a(I1
g123
tp1140
a(I2
g131
tp1141
a(I3
g131
tp1142
a(I0
g125
tp1143
a(I1
g123
tp1144
a(I2
g131
tp1145
a(I3
g127
tp1146
a(I0
g125
tp1147
a(I1
g131
tp1148
a(I2
g131
tp1149
a(I3
g123
tp1150
a(I0
g125
tp1151
a(I1
g123
tp1152
a(I2
g131
tp1153
a(I3
g123
tp1154
a(I0
g127
tp1155
a(I1
g123
tp1156
a(I2
g127
tp1157
a(I3
g125
tp1158
a(I0
g125
tp1159
a(I1
g127
tp1160
a(I2
g127
tp1161
a(I3
g125
tp1162
a(I0
g125
tp1163
a(I1
g127
tp1164
a(I2
g127
tp1165
a(I3
g131
tp1166
a(I0
g125
tp1167
a(I1
g127
tp1168
a(I2
g127
tp1169
a(I3
g131
tp1170
a(I0
g127
tp1171
a(I1
g127
tp1172
a(I2
g127
tp1173
a(I3
g125
tp1174
a(I0
g127
tp1175
a(I1
g123
tp1176
a(I2
g127
tp1177
a(I3
g131
tp1178
a(I0
g125
tp1179
a(I1
g123
tp1180
a(I2
g131
tp1181
a(I3
g131
tp1182
a(I0
g125
tp1183
a(I1
g123
tp1184
a(I2
g131
tp1185
a(I3
g127
tp1186
a(I0
g125
tp1187
a(I1
g127
tp1188
a(I2
g131
tp1189
a(I3
g131
tp1190
a(I0
g125
tp1191
a(I1
g127
tp1192
a(I2
g131
tp1193
a(I3
g127
tp1194
a(I0
g131
tp1195
a(I1
g127
tp1196
a(I2
g131
tp1197
a(I3
g131
tp1198
a(I0
g131
tp1199
a(I1
g127
tp1200
a(I2
g127
tp1201
a(I3
g127
tp1202
a(I0
g123
tp1203
a(I1
g123
tp1204
a(I2
g127
tp1205
a(I3
g127
tp1206
a(I0
g131
tp1207
a(I1
g123
tp1208
a(I2
g127
tp1209
a(I3
g127
tp1210
a(I0
g123
tp1211
a(I1
g131
tp1212
a(I2
g127
tp1213
a(I3
g125
tp1214
a(I0
g123
tp1215
a(I1
g131
tp1216
a(I2
g127
tp1217
a(I3
g123
tp1218
a(I0
g125
tp1219
a(I1
g131
tp1220
a(I2
g127
tp1221
a(I3
g123
tp1222
a(I0
g125
tp1223
a(I1
g131
tp1224
a(I2
g131
tp1225
a(I3
g127
tp1226
a(I0
g125
tp1227
a(I1
g123
tp1228
a(I2
g131
tp1229
a(I3
g131
tp1230
a(I0
g125
tp1231
a(I1
g123
tp1232
a(I2
g131
tp1233
a(I3
g125
tp1234
a(I0
g125
tp1235
a(I1
g123
tp1236
a(I2
g131
tp1237
a(I3
g123
tp1238
a(I0
g123
tp1239
a(I1
g131
tp1240
a(I2
g131
tp1241
a(I3
g127
tp1242
a(I0
g125
tp1243
a(I1
g123
tp1244
a(I2
g131
tp1245
a(I3
g131
tp1246
a(I0
g127
tp1247
a(I1
g123
tp1248
a(I2
g127
tp1249
a(I3
g127
tp1250
a(I0
g131
tp1251
a(I1
g123
tp1252
a(I2
g127
tp1253
a(I3
g127
tp1254
a(I0
g123
tp1255
a(I1
g123
tp1256
a(I2
g131
tp1257
a(I3
g131
tp1258
a(I0
g125
tp1259
a(I1
g123
tp1260
a(I2
g127
tp1261
a(I3
g131
tp1262
a(I0
g127
tp1263
a(I1
g123
tp1264
a(I2
g127
tp1265
a(I3
g131
tp1266
a(I0
g131
tp1267
a(I1
g131
tp1268
a(I2
g127
tp1269
a(I3
g125
tp1270
a(I0
g123
tp1271
a(I1
g123
tp1272
a(I2
g131
tp1273
a(I3
g127
tp1274
a(I0
g125
tp1275
a(I1
g123
tp1276
a(I2
g131
tp1277
a(I3
g123
tp1278
a(I0
g123
tp1279
a(I1
g123
tp1280
a(I2
g131
tp1281
a(I3
g127
tp1282
a(I0
g125
tp1283
a(I1
g125
tp1284
a(I2
g131
tp1285
a(I3
g127
tp1286
a(I0
g127
tp1287
a(I1
g125
tp1288
a(I2
g131
tp1289
a(I3
g131
tp1290
a(I0
g131
tp1291
a(I1
g123
tp1292
a(I2
g127
tp1293
a(I3
g127
tp1294
a(I0
g123
tp1295
a(I1
g127
tp1296
a(I2
g127
tp1297
a(I3
g131
tp1298
a(I0
g125
tp1299
a(I1
g127
tp1300
a(I2
g127
tp1301
a(I3
g131
tp1302
a(I0
g127
tp1303
a(I1
g127
tp1304
a(I2
g131
tp1305
a(I3
g127
tp1306
a(I0
g131
tp1307
a(I1
g127
tp1308
a(I2
g131
tp1309
a(I3
g131
tp1310
a(I0
g127
tp1311
a(I1
g123
tp1312
a(I2
g127
tp1313
a(I3
g127
tp1314
a(I0
g131
tp1315
a(I1
g123
tp1316
a(I2
g127
tp1317
a(I3
g127
tp1318
a(I0
g127
tp1319
a(I1
g127
tp1320
a(I2
g127
tp1321
a(I3
g131
tp1322
a(I0
g131
tp1323
a(I1
g123
tp1324
a(I2
g123
tp1325
a(I3
g131
tp1326
a(I0
g123
tp1327
asS'length'
p1328
I1200
sS'agents'
p1329
(lp1330
(igame
Agent
p1331
(dp1332
S'index'
p1333
I0
sba(igame
Agent
p1334
(dp1335
g1333
I0
sba(igame
Agent
p1336
(dp1337
g1333
I0
sba(igame
Agent
p1338
(dp1339
g1333
I0
sbasS'redTeamName'
p1340
S'Red'
p1341
s.